; Function Attrs: nounwind uwtable
define internal void @aes_cbc_hmac_sha256_freectx(ptr noundef %0) #0 {
  %.not = icmp eq ptr %0, null
  br i1 %.not, label %3, label %2

2:                                                ; preds = %1
  tail call void @ossl_cipher_generic_reset_ctx(ptr noundef nonnull %0) #4
  tail call void @CRYPTO_clear_free(ptr noundef nonnull %0, i64 noundef 840, ptr noundef nonnull @.str, i32 noundef 393) #4
  br label %3

3:                                                ; preds = %2, %1
  ret void
}